target datalayout = "e-m:e-p270:32:32-p271:32:32-p272:64:64-i64:64-i128:128-f80:128-n8:16:32:64-S128"
target triple = "x86_64-pc-linux-gnu"

%struct.EventFilterPrivate_HandlerNode_ = type { %struct.EventHandlerRestricted_HandlerNode_, %struct.EventFilters_ }
%struct.EventHandlerRestricted_HandlerNode_ = type { %struct.HandlerNode_, %struct.EventHandlerPrivate_Data_ }
%struct.HandlerNode_ = type { i32, i32, i8, i8, i32 }
%struct.EventHandlerPrivate_Data_ = type { ptr, ptr, ptr, ptr }
%struct.EventFilters_ = type { i32, [10000 x %struct.Filter_] }
%struct.Filter_ = type { i8, %union.anon }
%union.anon = type { %struct.LocationFilter }
%struct.LocationFilter = type { ptr, ptr, i64 }
%struct.FieldFilter = type { ptr, ptr }

; Function Attrs: nounwind uwtable
define hidden i32 @eventFilter_setFieldOnlyFilter(ptr noundef %0, i32 noundef %1, ptr noundef %2, ptr noundef %3) #0 {
  %5 = alloca i32, align 4
  %6 = alloca ptr, align 8
  %7 = alloca i32, align 4
  %8 = alloca ptr, align 8
  %9 = alloca ptr, align 8
  %10 = alloca ptr, align 8
  %11 = alloca ptr, align 8
  store ptr %0, ptr %6, align 8
  store i32 %1, ptr %7, align 4
  store ptr %2, ptr %8, align 8
  store ptr %3, ptr %9, align 8
  %12 = call ptr @getEnv()
  store ptr %12, ptr %10, align 8
  %13 = load ptr, ptr %6, align 8
  %14 = getelementptr inbounds %struct.EventFilterPrivate_HandlerNode_, ptr %13, i32 0, i32 1
  %15 = getelementptr inbounds %struct.EventFilters_, ptr %14, i32 0, i32 1
  %16 = load i32, ptr %7, align 4
  %17 = sext i32 %16 to i64
  %18 = getelementptr inbounds [10000 x %struct.Filter_], ptr %15, i64 0, i64 %17
  %19 = getelementptr inbounds %struct.Filter_, ptr %18, i32 0, i32 1
  store ptr %19, ptr %11, align 8
  %20 = load i32, ptr %7, align 4
  %21 = load ptr, ptr %6, align 8
  %22 = getelementptr inbounds %struct.EventFilterPrivate_HandlerNode_, ptr %21, i32 0, i32 1
  %23 = getelementptr inbounds %struct.EventFilters_, ptr %22, i32 0, i32 0
  %24 = load i32, ptr %23, align 8
  %25 = icmp sge i32 %20, %24
  br i1 %25, label %26, label %27

26:                                               ; preds = %4
  store i32 202, ptr %5, align 4
  br label %53

27:                                               ; preds = %4
  %28 = load ptr, ptr %6, align 8
  %29 = getelementptr inbounds %struct.HandlerNode_, ptr %28, i32 0, i32 1
  %30 = load i32, ptr %29, align 4
  %31 = icmp ne i32 %30, 10
  br i1 %31, label %32, label %38

32:                                               ; preds = %27
  %33 = load ptr, ptr %6, align 8
  %34 = getelementptr inbounds %struct.HandlerNode_, ptr %33, i32 0, i32 1
  %35 = load i32, ptr %34, align 4
  %36 = icmp ne i32 %35, 11
  br i1 %36, label %37, label %38

37:                                               ; preds = %32
  store i32 202, ptr %5, align 4
  br label %53

38:                                               ; preds = %32, %27
  %39 = load ptr, ptr %10, align 8
  %40 = load ptr, ptr %8, align 8
  %41 = load ptr, ptr %11, align 8
  %42 = getelementptr inbounds %struct.FieldFilter, ptr %41, i32 0, i32 0
  call void @saveGlobalRef(ptr noundef %39, ptr noundef %40, ptr noundef %42)
  %43 = load ptr, ptr %6, align 8
  %44 = getelementptr inbounds %struct.EventFilterPrivate_HandlerNode_, ptr %43, i32 0, i32 1
  %45 = getelementptr inbounds %struct.EventFilters_, ptr %44, i32 0, i32 1
  %46 = load i32, ptr %7, align 4
  %47 = sext i32 %46 to i64
  %48 = getelementptr inbounds [10000 x %struct.Filter_], ptr %45, i64 0, i64 %47
  %49 = getelementptr inbounds %struct.Filter_, ptr %48, i32 0, i32 0
  store i8 9, ptr %49, align 8
  %50 = load ptr, ptr %9, align 8
  %51 = load ptr, ptr %11, align 8
  %52 = getelementptr inbounds %struct.FieldFilter, ptr %51, i32 0, i32 1
  store ptr %50, ptr %52, align 8
  store i32 0, ptr %5, align 4
  br label %53

53:                                               ; preds = %38, %37, %26
  %54 = load i32, ptr %5, align 4
  ret i32 %54
}