; Function Attrs: nounwind uwtable
define hidden range(i32 0, 203) i32 @eventFilter_setFieldOnlyFilter(ptr noundef %0, i32 noundef %1, ptr noundef %2, ptr noundef %3) local_unnamed_addr #0 {
  %5 = tail call ptr @getEnv() #6
  %6 = getelementptr inbounds i8, ptr %0, i64 48
  %7 = getelementptr inbounds i8, ptr %0, i64 56
  %8 = sext i32 %1 to i64
  %9 = getelementptr inbounds [10000 x %struct.Filter_], ptr %7, i64 0, i64 %8
  %10 = getelementptr inbounds i8, ptr %9, i64 8
  %11 = load i32, ptr %6, align 8
  %.not = icmp sgt i32 %11, %1
  br i1 %.not, label %12, label %18

12:                                               ; preds = %4
  %13 = getelementptr inbounds i8, ptr %0, i64 4
  %14 = load i32, ptr %13, align 4
  %15 = and i32 %14, -2
  %switch = icmp eq i32 %15, 10
  br i1 %switch, label %16, label %18

16:                                               ; preds = %12
  tail call void @saveGlobalRef(ptr noundef %5, ptr noundef %2, ptr noundef nonnull %10) #6
  store i8 9, ptr %9, align 8
  %17 = getelementptr inbounds i8, ptr %9, i64 16
  store ptr %3, ptr %17, align 8
  br label %18

18:                                               ; preds = %12, %4, %16
  %.0 = phi i32 [ 0, %16 ], [ 202, %4 ], [ 202, %12 ]
  ret i32 %.0
}